target datalayout = "e-m:e-p270:32:32-p271:32:32-p272:64:64-i64:64-i128:128-f80:128-n8:16:32:64-S128"
target triple = "x86_64-pc-linux-gnu"

%struct.ccm128_context = type { %union.anon, %union.anon, i64, ptr, ptr }
%union.anon = type { [2 x i64] }

; Function Attrs: nounwind uwtable
define i64 @CRYPTO_ccm128_tag(ptr noundef %0, ptr noundef %1, i64 noundef %2) #0 {
  %4 = alloca i64, align 8
  %5 = alloca ptr, align 8
  %6 = alloca ptr, align 8
  %7 = alloca i64, align 8
  %8 = alloca i32, align 4
  %9 = alloca i32, align 4
  store ptr %0, ptr %5, align 8, !tbaa !3
  store ptr %1, ptr %6, align 8, !tbaa !17
  store i64 %2, ptr %7, align 8, !tbaa !19
  call void @llvm.lifetime.start.p0(i64 4, ptr %8) #4
  %10 = load ptr, ptr %5, align 8, !tbaa !3
  %11 = getelementptr inbounds nuw %struct.ccm128_context, ptr %10, i32 0, i32 0
  %12 = getelementptr inbounds [16 x i8], ptr %11, i64 0, i64 0
  %13 = load i8, ptr %12, align 8, !tbaa !11
  %14 = zext i8 %13 to i32
  %15 = ashr i32 %14, 3
  %16 = and i32 %15, 7
  store i32 %16, ptr %8, align 4, !tbaa !8
  %17 = load i32, ptr %8, align 4, !tbaa !8
  %18 = mul i32 %17, 2
  store i32 %18, ptr %8, align 4, !tbaa !8
  %19 = load i32, ptr %8, align 4, !tbaa !8
  %20 = add i32 %19, 2
  store i32 %20, ptr %8, align 4, !tbaa !8
  %21 = load i64, ptr %7, align 8, !tbaa !19
  %22 = load i32, ptr %8, align 4, !tbaa !8
  %23 = zext i32 %22 to i64
  %24 = icmp ne i64 %21, %23
  br i1 %24, label %25, label %26

25:                                               ; preds = %3
  store i64 0, ptr %4, align 8
  store i32 1, ptr %9, align 4
  br label %35

26:                                               ; preds = %3
  %27 = load ptr, ptr %6, align 8, !tbaa !17
  %28 = load ptr, ptr %5, align 8, !tbaa !3
  %29 = getelementptr inbounds nuw %struct.ccm128_context, ptr %28, i32 0, i32 1
  %30 = getelementptr inbounds [16 x i8], ptr %29, i64 0, i64 0
  %31 = load i32, ptr %8, align 4, !tbaa !8
  %32 = zext i32 %31 to i64
  call void @llvm.memcpy.p0.p0.i64(ptr align 1 %27, ptr align 8 %30, i64 %32, i1 false)
  %33 = load i32, ptr %8, align 4, !tbaa !8
  %34 = zext i32 %33 to i64
  store i64 %34, ptr %4, align 8
  store i32 1, ptr %9, align 4
  br label %35

35:                                               ; preds = %26, %25
  call void @llvm.lifetime.end.p0(i64 4, ptr %8) #4
  %36 = load i64, ptr %4, align 8
  ret i64 %36
}