; Function Attrs: mustprogress nofree norecurse nosync nounwind willreturn memory(argmem: readwrite) uwtable
define range(i64 0, 17) i64 @CRYPTO_ccm128_tag(ptr noundef readonly captures(none) %0, ptr noundef writeonly captures(none) %1, i64 noundef %2) local_unnamed_addr #2 {
  %4 = load i8, ptr %0, align 8, !tbaa !3
  %5 = lshr i8 %4, 2
  %6 = and i8 %5, 14
  %narrow = add nuw nsw i8 %6, 2
  %7 = zext nneg i8 %narrow to i64
  %.not = icmp eq i64 %2, %7
  br i1 %.not, label %8, label %10

8:                                                ; preds = %3
  %9 = getelementptr inbounds nuw i8, ptr %0, i64 16
  tail call void @llvm.memcpy.p0.p0.i64(ptr noundef nonnull align 1 dereferenceable(1) %1, ptr noundef nonnull align 8 dereferenceable(1) %9, i64 %2, i1 false)
  br label %10

10:                                               ; preds = %3, %8
  %.0 = phi i64 [ %2, %8 ], [ 0, %3 ]
  ret i64 %.0
}